; ModuleID = '19/145.c'
source_filename = "19/145.c"
target datalayout = "e-m:e-p270:32:32-p271:32:32-p272:64:64-i64:64-f80:128-n8:16:32:64-S128"
target triple = "x86_64-pc-linux-gnu"

@.str = private unnamed_addr constant [3 x i8] c"%s\00", align 1
@.str.1 = private unnamed_addr constant [4 x i8] c" %s\00", align 1

; Function Attrs: noinline nounwind uwtable
define dso_local i32 @main(i32 %0, i8** %1) #0 {
  %3 = alloca i32, align 4
  %4 = alloca i32, align 4
  %5 = alloca i8**, align 8
  %6 = alloca [100 x i8], align 16
  %7 = alloca [100 x i8], align 16
  %8 = alloca [100 x i8], align 16
  %9 = alloca i32, align 4
  %10 = alloca i32, align 4
  %11 = alloca i32, align 4
  %12 = alloca i32, align 4
  %13 = alloca i32, align 4
  %14 = alloca [100 x i8], align 16
  store i32 0, i32* %3, align 4
  store i32 %0, i32* %4, align 4
  store i8** %1, i8*** %5, align 8
  store i32 0, i32* %10, align 4
  store i32 1, i32* %13, align 4
  %15 = getelementptr inbounds [100 x i8], [100 x i8]* %6, i64 0, i64 0
  %16 = call i32 (i8*, ...) bitcast (i32 (...)* @gets to i32 (i8*, ...)*)(i8* %15)
  %17 = getelementptr inbounds [100 x i8], [100 x i8]* %7, i64 0, i64 0
  %18 = call i32 (i8*, ...) bitcast (i32 (...)* @gets to i32 (i8*, ...)*)(i8* %17)
  %19 = getelementptr inbounds [100 x i8], [100 x i8]* %8, i64 0, i64 0
  %20 = call i32 (i8*, ...) bitcast (i32 (...)* @gets to i32 (i8*, ...)*)(i8* %19)
  store i32 0, i32* %9, align 4
  br label %21

21:                                               ; preds = %39, %2
  %22 = load i32, i32* %9, align 4
  %23 = sext i32 %22 to i64
  %24 = getelementptr inbounds [100 x i8], [100 x i8]* %6, i64 0, i64 %23
  %25 = load i8, i8* %24, align 1
  %26 = sext i8 %25 to i32
  %27 = icmp ne i32 %26, 0
  br i1 %27, label %28, label %42

28:                                               ; preds = %21
  %29 = load i32, i32* %9, align 4
  %30 = sext i32 %29 to i64
  %31 = getelementptr inbounds [100 x i8], [100 x i8]* %6, i64 0, i64 %30
  %32 = load i8, i8* %31, align 1
  %33 = sext i8 %32 to i32
  %34 = icmp eq i32 %33, 32
  br i1 %34, label %35, label %38

35:                                               ; preds = %28
  %36 = load i32, i32* %13, align 4
  %37 = add nsw i32 %36, 1
  store i32 %37, i32* %13, align 4
  br label %38

38:                                               ; preds = %35, %28
  br label %39

39:                                               ; preds = %38
  %40 = load i32, i32* %9, align 4
  %41 = add nsw i32 %40, 1
  store i32 %41, i32* %9, align 4
  br label %21

42:                                               ; preds = %21
  store i32 0, i32* %9, align 4
  br label %43

43:                                               ; preds = %58, %42
  %44 = load i32, i32* %9, align 4
  %45 = sext i32 %44 to i64
  %46 = getelementptr inbounds [100 x i8], [100 x i8]* %6, i64 0, i64 %45
  %47 = load i8, i8* %46, align 1
  %48 = sext i8 %47 to i32
  %49 = icmp ne i32 %48, 32
  br i1 %49, label %50, label %61

50:                                               ; preds = %43
  %51 = load i32, i32* %9, align 4
  %52 = sext i32 %51 to i64
  %53 = getelementptr inbounds [100 x i8], [100 x i8]* %6, i64 0, i64 %52
  %54 = load i8, i8* %53, align 1
  %55 = load i32, i32* %9, align 4
  %56 = sext i32 %55 to i64
  %57 = getelementptr inbounds [100 x i8], [100 x i8]* %14, i64 0, i64 %56
  store i8 %54, i8* %57, align 1
  br label %58

58:                                               ; preds = %50
  %59 = load i32, i32* %9, align 4
  %60 = add nsw i32 %59, 1
  store i32 %60, i32* %9, align 4
  br label %43

61:                                               ; preds = %43
  %62 = load i32, i32* %9, align 4
  %63 = sext i32 %62 to i64
  %64 = getelementptr inbounds [100 x i8], [100 x i8]* %14, i64 0, i64 %63
  store i8 0, i8* %64, align 1
  %65 = getelementptr inbounds [100 x i8], [100 x i8]* %14, i64 0, i64 0
  %66 = getelementptr inbounds [100 x i8], [100 x i8]* %7, i64 0, i64 0
  %67 = call i32 @strcmp(i8* %65, i8* %66) #3
  %68 = icmp eq i32 %67, 0
  br i1 %68, label %69, label %72

69:                                               ; preds = %61
  %70 = getelementptr inbounds [100 x i8], [100 x i8]* %8, i64 0, i64 0
  %71 = call i32 (i8*, ...) @printf(i8* getelementptr inbounds ([3 x i8], [3 x i8]* @.str, i64 0, i64 0), i8* %70)
  br label %75

72:                                               ; preds = %61
  %73 = getelementptr inbounds [100 x i8], [100 x i8]* %14, i64 0, i64 0
  %74 = call i32 (i8*, ...) @printf(i8* getelementptr inbounds ([3 x i8], [3 x i8]* @.str, i64 0, i64 0), i8* %73)
  br label %75

75:                                               ; preds = %72, %69
  %76 = load i32, i32* %9, align 4
  %77 = add nsw i32 %76, 1
  store i32 %77, i32* %11, align 4
  store i32 1, i32* %9, align 4
  br label %78

78:                                               ; preds = %122, %75
  %79 = load i32, i32* %9, align 4
  %80 = load i32, i32* %13, align 4
  %81 = sub nsw i32 %80, 1
  %82 = icmp slt i32 %79, %81
  br i1 %82, label %83, label %125

83:                                               ; preds = %78
  store i32 0, i32* %12, align 4
  %84 = load i32, i32* %11, align 4
  store i32 %84, i32* %10, align 4
  br label %85

85:                                               ; preds = %102, %83
  %86 = load i32, i32* %10, align 4
  %87 = sext i32 %86 to i64
  %88 = getelementptr inbounds [100 x i8], [100 x i8]* %6, i64 0, i64 %87
  %89 = load i8, i8* %88, align 1
  %90 = sext i8 %89 to i32
  %91 = icmp ne i32 %90, 32
  br i1 %91, label %92, label %105

92:                                               ; preds = %85
  %93 = load i32, i32* %10, align 4
  %94 = sext i32 %93 to i64
  %95 = getelementptr inbounds [100 x i8], [100 x i8]* %6, i64 0, i64 %94
  %96 = load i8, i8* %95, align 1
  %97 = load i32, i32* %12, align 4
  %98 = sext i32 %97 to i64
  %99 = getelementptr inbounds [100 x i8], [100 x i8]* %14, i64 0, i64 %98
  store i8 %96, i8* %99, align 1
  %100 = load i32, i32* %12, align 4
  %101 = add nsw i32 %100, 1
  store i32 %101, i32* %12, align 4
  br label %102

102:                                              ; preds = %92
  %103 = load i32, i32* %10, align 4
  %104 = add nsw i32 %103, 1
  store i32 %104, i32* %10, align 4
  br label %85

105:                                              ; preds = %85
  %106 = load i32, i32* %12, align 4
  %107 = sext i32 %106 to i64
  %108 = getelementptr inbounds [100 x i8], [100 x i8]* %14, i64 0, i64 %107
  store i8 0, i8* %108, align 1
  %109 = getelementptr inbounds [100 x i8], [100 x i8]* %14, i64 0, i64 0
  %110 = getelementptr inbounds [100 x i8], [100 x i8]* %7, i64 0, i64 0
  %111 = call i32 @strcmp(i8* %109, i8* %110) #3
  %112 = icmp eq i32 %111, 0
  br i1 %112, label %113, label %116

113:                                              ; preds = %105
  %114 = getelementptr inbounds [100 x i8], [100 x i8]* %8, i64 0, i64 0
  %115 = call i32 (i8*, ...) @printf(i8* getelementptr inbounds ([4 x i8], [4 x i8]* @.str.1, i64 0, i64 0), i8* %114)
  br label %119

116:                                              ; preds = %105
  %117 = getelementptr inbounds [100 x i8], [100 x i8]* %14, i64 0, i64 0
  %118 = call i32 (i8*, ...) @printf(i8* getelementptr inbounds ([4 x i8], [4 x i8]* @.str.1, i64 0, i64 0), i8* %117)
  br label %119

119:                                              ; preds = %116, %113
  %120 = load i32, i32* %10, align 4
  %121 = add nsw i32 %120, 1
  store i32 %121, i32* %11, align 4
  br label %122

122:                                              ; preds = %119
  %123 = load i32, i32* %9, align 4
  %124 = add nsw i32 %123, 1
  store i32 %124, i32* %9, align 4
  br label %78

125:                                              ; preds = %78
  store i32 0, i32* %12, align 4
  %126 = load i32, i32* %11, align 4
  store i32 %126, i32* %10, align 4
  br label %127

127:                                              ; preds = %144, %125
  %128 = load i32, i32* %10, align 4
  %129 = sext i32 %128 to i64
  %130 = getelementptr inbounds [100 x i8], [100 x i8]* %6, i64 0, i64 %129
  %131 = load i8, i8* %130, align 1
  %132 = sext i8 %131 to i32
  %133 = icmp ne i32 %132, 0
  br i1 %133, label %134, label %147

134:                                              ; preds = %127
  %135 = load i32, i32* %10, align 4
  %136 = sext i32 %135 to i64
  %137 = getelementptr inbounds [100 x i8], [100 x i8]* %6, i64 0, i64 %136
  %138 = load i8, i8* %137, align 1
  %139 = load i32, i32* %12, align 4
  %140 = sext i32 %139 to i64
  %141 = getelementptr inbounds [100 x i8], [100 x i8]* %14, i64 0, i64 %140
  store i8 %138, i8* %141, align 1
  %142 = load i32, i32* %12, align 4
  %143 = add nsw i32 %142, 1
  store i32 %143, i32* %12, align 4
  br label %144

144:                                              ; preds = %134
  %145 = load i32, i32* %10, align 4
  %146 = add nsw i32 %145, 1
  store i32 %146, i32* %10, align 4
  br label %127

147:                                              ; preds = %127
  %148 = load i32, i32* %12, align 4
  %149 = sext i32 %148 to i64
  %150 = getelementptr inbounds [100 x i8], [100 x i8]* %14, i64 0, i64 %149
  store i8 0, i8* %150, align 1
  %151 = getelementptr inbounds [100 x i8], [100 x i8]* %14, i64 0, i64 0
  %152 = getelementptr inbounds [100 x i8], [100 x i8]* %7, i64 0, i64 0
  %153 = call i32 @strcmp(i8* %151, i8* %152) #3
  %154 = icmp eq i32 %153, 0
  br i1 %154, label %155, label %158

155:                                              ; preds = %147
  %156 = getelementptr inbounds [100 x i8], [100 x i8]* %8, i64 0, i64 0
  %157 = call i32 (i8*, ...) @printf(i8* getelementptr inbounds ([4 x i8], [4 x i8]* @.str.1, i64 0, i64 0), i8* %156)
  br label %161

158:                                              ; preds = %147
  %159 = getelementptr inbounds [100 x i8], [100 x i8]* %14, i64 0, i64 0
  %160 = call i32 (i8*, ...) @printf(i8* getelementptr inbounds ([4 x i8], [4 x i8]* @.str.1, i64 0, i64 0), i8* %159)
  br label %161

161:                                              ; preds = %158, %155
  ret i32 0
}

declare dso_local i32 @gets(...) #1

; Function Attrs: nounwind readonly
declare dso_local i32 @strcmp(i8*, i8*) #2

declare dso_local i32 @printf(i8*, ...) #1


!llvm.module.flags = !{!0}
!llvm.ident = !{!1}

!0 = !{i32 1, !"wchar_size", i32 4}
!1 = !{!"clang version 10.0.0-4ubuntu1 "}
